target datalayout = "e-m:e-p270:32:32-p271:32:32-p272:64:64-i64:64-i128:128-f80:128-n8:16:32:64-S128"
target triple = "x86_64-pc-linux-gnu"

%"class.gmx::MttkData" = type { %"class.gmx::ICheckpointHelperClient", float, float, float, double, double, double, float, [3 x [3 x float]], float, float, float, ptr, ptr, %"class.std::__cxx11::basic_string" }
%"class.gmx::ICheckpointHelperClient" = type { ptr }
%"class.std::__cxx11::basic_string" = type { %"struct.std::__cxx11::basic_string<char>::_Alloc_hider", i64, %union.anon }
%"struct.std::__cxx11::basic_string<char>::_Alloc_hider" = type { ptr }
%union.anon = type { i64, [8 x i8] }

; Function Attrs: mustprogress uwtable
define void @_ZN3gmx8MttkData14setEtaVelocityEff(ptr noundef nonnull align 8 dereferenceable(152) %0, float noundef %1, float noundef %2) #1 align 2 {
  %4 = alloca ptr, align 8
  %5 = alloca float, align 4
  %6 = alloca float, align 4
  store ptr %0, ptr %4, align 8, !tbaa !4
  store float %1, ptr %5, align 4, !tbaa !111
  store float %2, ptr %6, align 4, !tbaa !111
  %7 = load ptr, ptr %4, align 8
  %8 = load float, ptr %5, align 4, !tbaa !111
  %9 = getelementptr inbounds nuw %"class.gmx::MttkData", ptr %7, i32 0, i32 2
  store float %8, ptr %9, align 4, !tbaa !713
  %10 = load float, ptr %6, align 4, !tbaa !111
  %11 = fpext float %10 to double
  %12 = getelementptr inbounds nuw %"class.gmx::MttkData", ptr %7, i32 0, i32 4
  %13 = load double, ptr %12, align 8, !tbaa !714
  %14 = fadd double %13, %11
  store double %14, ptr %12, align 8, !tbaa !714
  call void @_ZN3gmx8MttkData25calculateIntegralIfNeededEv(ptr noundef nonnull align 8 dereferenceable(152) %7)
  call void @_ZN3gmx8MttkData20updateScalingFactorsEv(ptr noundef nonnull align 8 dereferenceable(152) %7)
  ret void
}