; Function Attrs: mustprogress uwtable
define void @_ZN3gmx8MttkData14setEtaVelocityEff(ptr noundef nonnull align 8 captures(none) dereferenceable(152) initializes((12, 16)) %0, float noundef %1, float noundef %2) local_unnamed_addr #1 align 2 {
  %4 = getelementptr inbounds nuw i8, ptr %0, i64 12
  store float %1, ptr %4, align 4, !tbaa !328
  %5 = fpext float %2 to double
  %6 = getelementptr inbounds nuw i8, ptr %0, i64 24
  %7 = load double, ptr %6, align 8, !tbaa !334
  %8 = fadd double %7, %5
  store double %8, ptr %6, align 8, !tbaa !334
  tail call void @_ZN3gmx8MttkData25calculateIntegralIfNeededEv(ptr noundef nonnull align 8 dereferenceable(152) %0)
  tail call void @_ZN3gmx8MttkData20updateScalingFactorsEv(ptr noundef nonnull align 8 dereferenceable(152) %0)
  ret void
}